Certificate:
    Data:
        Version: 3 (0x2)
        Serial Number: 1 (0x1)
        Signature Algorithm: sha256WithRSAEncryption
        Issuer: C=FR, ST=Radius, L=Somewhere, O=Example Inc./emailAddress=admin@example.org, CN=Example Certificate Authority
        Validity
            Not Before: May 27 02:48:24 2022 GMT
            Not After : Jul 26 02:48:24 2022 GMT
        Subject: C=FR, ST=Radius, O=Example Inc., CN=Example Server Certificate/emailAddress=admin@example.org
        Subject Public Key Info:
            Public Key Algorithm: rsaEncryption
                RSA Public-Key: (2048 bit)
                Modulus:
                    00:b2:09:a3:d8:08:db:7b:f2:54:be:e6:06:bd:42:
                    5e:55:7c:53:ec:df:92:6c:ed:a2:96:5f:00:7b:67:
                    e3:a3:18:3f:93:6e:ef:55:be:8e:10:85:11:86:70:
                    bb:de:de:2e:0b:4d:ac:82:c2:db:69:bc:29:44:10:
                    7d:c1:fd:39:86:7f:1a:62:c6:23:c5:2d:4f:bf:a0:
                    3a:e0:cf:38:77:c5:5b:b7:23:77:63:00:ac:23:f5:
                    9a:85:82:da:e5:9d:5c:29:35:0c:bc:c3:4a:27:55:
                    e9:9b:36:ad:b2:29:6f:a7:cd:39:bb:e1:ba:89:c7:
                    ed:cc:21:6a:77:89:1e:2f:f5:99:8d:b2:ae:fe:9e:
                    d5:c2:2f:f2:07:96:99:04:7b:cd:70:84:28:16:c2:
                    9c:f2:84:97:c0:82:3c:14:0d:c7:ef:ac:10:2e:8d:
                    ed:e0:cb:33:07:78:68:69:95:41:7b:d7:57:ee:56:
                    19:75:61:3e:f3:a6:44:14:ee:ac:8f:53:8a:7b:f7:
                    2a:e6:66:53:d7:ea:80:ca:db:03:9f:2a:7f:28:08:
                    9e:a4:52:29:67:6c:56:73:73:63:4d:68:55:33:d5:
                    d4:e3:c8:e0:e6:08:de:fb:d8:ec:b6:aa:4d:02:1f:
                    32:83:28:47:5f:01:9a:9d:cb:49:d9:40:ee:5c:1b:
                    2b:51
                Exponent: 65537 (0x10001)
        X509v3 extensions:
            X509v3 Extended Key Usage: 
                TLS Web Server Authentication
            X509v3 CRL Distribution Points: 

                Full Name:
                  URI:http://www.example.com/example_ca.crl

            X509v3 Certificate Policies: 
                Policy: 1.3.6.1.4.1.40808.1.3.2

    Signature Algorithm: sha256WithRSAEncryption
         29:53:42:8b:5f:98:20:1d:76:a2:10:58:5f:0f:aa:da:0a:4c:
         c3:77:f7:e8:5d:cc:3b:a3:f9:21:6d:92:57:e6:07:43:3e:73:
         ae:7e:79:6a:d6:19:1e:92:46:ef:b3:ce:9e:c7:29:9d:59:c2:
         7d:1f:e1:bb:b4:02:8b:56:58:9a:35:6b:ab:3e:7d:2a:bb:8f:
         37:04:7c:4a:21:9e:95:94:18:d3:2d:bb:b9:cf:3b:25:79:d7:
         b0:04:a2:3b:e8:cc:3d:04:30:e5:71:1f:96:50:21:cb:87:2c:
         88:a6:e4:85:ad:46:2c:fb:86:ac:27:2d:27:5f:8a:04:51:d6:
         a2:ca:32:dc:58:30:44:d1:90:a8:34:47:6c:ad:8b:7b:17:40:
         f2:8d:82:9c:c6:67:c9:cf:da:1d:f7:28:5c:fc:4e:77:3b:9c:
         22:e6:9a:6e:54:be:25:11:2f:ec:46:b0:c4:0d:93:6a:7b:41:
         e0:39:60:9c:94:fb:ca:52:a1:7d:8d:4c:f6:e2:b3:81:d2:7f:
         80:73:39:1f:92:82:a5:ec:33:e6:f5:65:fa:f9:58:e0:79:e5:
         3a:82:2e:6c:1d:d6:d5:df:44:81:71:97:fe:2a:89:5d:0c:b3:
         23:b1:75:31:3e:ec:a0:e8:0a:1f:79:9d:f7:10:50:45:91:8b:
         e1:4d:8f:b5
-----BEGIN CERTIFICATE-----
MIID9DCCAtygAwIBAgIBATANBgkqhkiG9w0BAQsFADCBkzELMAkGA1UEBhMCRlIx
DzANBgNVBAgMBlJhZGl1czESMBAGA1UEBwwJU29tZXdoZXJlMRUwEwYDVQQKDAxF
eGFtcGxlIEluYy4xIDAeBgkqhkiG9w0BCQEWEWFkbWluQGV4YW1wbGUub3JnMSYw
JAYDVQQDDB1FeGFtcGxlIENlcnRpZmljYXRlIEF1dGhvcml0eTAeFw0yMjA1Mjcw
MjQ4MjRaFw0yMjA3MjYwMjQ4MjRaMHwxCzAJBgNVBAYTAkZSMQ8wDQYDVQQIDAZS
YWRpdXMxFTATBgNVBAoMDEV4YW1wbGUgSW5jLjEjMCEGA1UEAwwaRXhhbXBsZSBT
ZXJ2ZXIgQ2VydGlmaWNhdGUxIDAeBgkqhkiG9w0BCQEWEWFkbWluQGV4YW1wbGUu
b3JnMIIBIjANBgkqhkiG9w0BAQEFAAOCAQ8AMIIBCgKCAQEAsgmj2Ajbe/JUvuYG
vUJeVXxT7N+SbO2ill8Ae2fjoxg/k27vVb6OEIURhnC73t4uC02sgsLbabwpRBB9
wf05hn8aYsYjxS1Pv6A64M84d8VbtyN3YwCsI/WahYLa5Z1cKTUMvMNKJ1Xpmzat
silvp805u+G6icftzCFqd4keL/WZjbKu/p7Vwi/yB5aZBHvNcIQoFsKc8oSXwII8
FA3H76wQLo3t4MszB3hoaZVBe9dX7lYZdWE+86ZEFO6sj1OKe/cq5mZT1+qAytsD
nyp/KAiepFIpZ2xWc3NjTWhVM9XU48jg5gje+9jstqpNAh8ygyhHXwGanctJ2UDu
XBsrUQIDAQABo2kwZzATBgNVHSUEDDAKBggrBgEFBQcDATA2BgNVHR8ELzAtMCug
KaAnhiVodHRwOi8vd3d3LmV4YW1wbGUuY29tL2V4YW1wbGVfY2EuY3JsMBgGA1Ud
IAQRMA8wDQYLKwYBBAGCvmgBAwIwDQYJKoZIhvcNAQELBQADggEBAClTQotfmCAd
dqIQWF8PqtoKTMN39+hdzDuj+SFtklfmB0M+c65+eWrWGR6SRu+zzp7HKZ1Zwn0f
4bu0AotWWJo1a6s+fSq7jzcEfEohnpWUGNMtu7nPOyV517AEojvozD0EMOVxH5ZQ
IcuHLIim5IWtRiz7hqwnLSdfigRR1qLKMtxYMETRkKg0R2yti3sXQPKNgpzGZ8nP
2h33KFz8Tnc7nCLmmm5UviURL+xGsMQNk2p7QeA5YJyU+8pSoX2NTPbis4HSf4Bz
OR+SgqXsM+b1Zfr5WOB55TqCLmwd1tXfRIFxl/4qiV0MsyOxdTE+7KDoCh95nfcQ
UEWRi+FNj7U=
-----END CERTIFICATE-----
